; Function Attrs: mustprogress uwtable
define hidden noundef zeroext i1 @_ZN3sls10seq_plugin8is_valueEP4expr(ptr noundef nonnull align 8 dereferenceable(768) %0, ptr noundef nonnull %1) local_unnamed_addr #3 align 2 {
  %3 = tail call noundef ptr @_ZNK4expr8get_sortEv(ptr noundef nonnull align 4 dereferenceable(16) %1)
  %4 = getelementptr inbounds nuw i8, ptr %3, i64 24
  %5 = load ptr, ptr %4, align 8, !tbaa !156
  %6 = icmp eq ptr %5, null
  br i1 %6, label %_ZNK8seq_util6is_seqEP4expr.exit.thread, label %_ZNK4decl13get_family_idEv.exit.thread.i.i.i.i

_ZNK4decl13get_family_idEv.exit.thread.i.i.i.i:   ; preds = %2
  %7 = getelementptr inbounds nuw i8, ptr %0, i64 56
  %8 = load i32, ptr %7, align 8, !tbaa !64
  %9 = load i32, ptr %5, align 8, !tbaa !159
  %10 = icmp eq i32 %9, %8
  br i1 %10, label %_ZNK8seq_util6is_seqEP4expr.exit, label %_ZNK8seq_util6is_seqEP4expr.exit.thread

_ZNK8seq_util6is_seqEP4expr.exit:                 ; preds = %_ZNK4decl13get_family_idEv.exit.thread.i.i.i.i
  %11 = getelementptr inbounds nuw i8, ptr %5, i64 4
  %12 = load i32, ptr %11, align 4, !tbaa !164
  %13 = icmp eq i32 %12, 0
  br i1 %13, label %14, label %_ZNK8seq_util6is_seqEP4expr.exit.thread

14:                                               ; preds = %_ZNK8seq_util6is_seqEP4expr.exit
  %15 = tail call noundef nonnull align 8 dereferenceable(224) ptr @_ZN3sls10seq_plugin8get_evalEP4expr(ptr noundef nonnull align 8 dereferenceable(768) %0, ptr noundef nonnull %1)
  %16 = getelementptr inbounds nuw i8, ptr %15, i64 192
  %17 = load i8, ptr %16, align 8, !tbaa !196, !range !200, !noundef !201
  %18 = trunc nuw i8 %17 to i1
  br label %22

_ZNK8seq_util6is_seqEP4expr.exit.thread:          ; preds = %2, %_ZNK4decl13get_family_idEv.exit.thread.i.i.i.i, %_ZNK8seq_util6is_seqEP4expr.exit
  %19 = getelementptr inbounds nuw i8, ptr %0, i64 16
  %20 = load ptr, ptr %19, align 8, !tbaa !175
  %21 = tail call noundef zeroext i1 @_ZNK11ast_manager8is_valueEP4expr(ptr noundef nonnull align 8 dereferenceable(976) %20, ptr noundef nonnull %1)
  br label %22

22:                                               ; preds = %_ZNK8seq_util6is_seqEP4expr.exit.thread, %14
  %.0 = phi i1 [ %18, %14 ], [ %21, %_ZNK8seq_util6is_seqEP4expr.exit.thread ]
  ret i1 %.0
}